; Function Attrs: mustprogress nofree norecurse nosync nounwind willreturn memory(read, inaccessiblemem: none) uwtable
define dso_local { ptr, ptr } @_ZN4Luau7CodeGen11domChildrenERKNS0_7CfgInfoEj(ptr nocapture noundef nonnull readonly align 8 dereferenceable(304) %0, i32 noundef %1) local_unnamed_addr #2 {
  %3 = getelementptr inbounds i8, ptr %0, i64 144
  %4 = zext i32 %1 to i64
  %5 = load ptr, ptr %3, align 8
  %6 = getelementptr inbounds i32, ptr %5, i64 %4
  %7 = load i32, ptr %6, align 4
  %8 = add i32 %1, 1
  %9 = zext i32 %8 to i64
  %10 = getelementptr inbounds i8, ptr %0, i64 152
  %11 = load ptr, ptr %10, align 8
  %12 = ptrtoint ptr %11 to i64
  %13 = ptrtoint ptr %5 to i64
  %14 = sub i64 %12, %13
  %15 = ashr exact i64 %14, 2
  %16 = icmp ugt i64 %15, %9
  br i1 %16, label %17, label %20

17:                                               ; preds = %2
  %18 = getelementptr inbounds i32, ptr %5, i64 %9
  %19 = load i32, ptr %18, align 4
  %.phi.trans.insert = getelementptr inbounds i8, ptr %0, i64 120
  %.pre = load ptr, ptr %.phi.trans.insert, align 8
  br label %30

20:                                               ; preds = %2
  %21 = getelementptr inbounds i8, ptr %0, i64 120
  %22 = getelementptr inbounds i8, ptr %0, i64 128
  %23 = load ptr, ptr %22, align 8
  %24 = load ptr, ptr %21, align 8
  %25 = ptrtoint ptr %23 to i64
  %26 = ptrtoint ptr %24 to i64
  %27 = sub i64 %25, %26
  %28 = lshr exact i64 %27, 2
  %29 = trunc i64 %28 to i32
  br label %30

30:                                               ; preds = %20, %17
  %31 = phi ptr [ %.pre, %17 ], [ %24, %20 ]
  %32 = phi i32 [ %19, %17 ], [ %29, %20 ]
  %33 = zext i32 %7 to i64
  %34 = getelementptr inbounds i32, ptr %31, i64 %33
  %35 = zext i32 %32 to i64
  %36 = getelementptr inbounds i32, ptr %31, i64 %35
  %.fca.0.insert = insertvalue { ptr, ptr } poison, ptr %34, 0
  %.fca.1.insert = insertvalue { ptr, ptr } %.fca.0.insert, ptr %36, 1
  ret { ptr, ptr } %.fca.1.insert
}